target datalayout = "e-m:e-p270:32:32-p271:32:32-p272:64:64-i64:64-i128:128-f80:128-n8:16:32:64-S128"
target triple = "x86_64-pc-linux-gnu"

%struct.darktable_t = type { %struct.dt_codepath_t, i32, i32, ptr, ptr, ptr, ptr, ptr, ptr, ptr, ptr, ptr, ptr, ptr, ptr, ptr, ptr, ptr, ptr, ptr, ptr, ptr, ptr, ptr, ptr, ptr, ptr, ptr, ptr, ptr, [64 x %struct.dt_pthread_mutex_t], %struct.dt_pthread_mutex_t, %struct.dt_pthread_mutex_t, %struct.dt_pthread_mutex_t, %struct.dt_pthread_mutex_t, %struct.dt_pthread_mutex_t, ptr, ptr, ptr, ptr, ptr, ptr, ptr, ptr, ptr, ptr, ptr, ptr, ptr, %struct.dt_lua_state_t, ptr, double, ptr, i32, [47 x i32], i32, i32, ptr, ptr, %struct.dt_sys_resources_t, %struct.dt_backthumb_t, %struct.dt_gimp_t }
%struct.dt_codepath_t = type { i8, [3 x i8] }
%struct.dt_pthread_mutex_t = type { %union.pthread_mutex_t }
%union.pthread_mutex_t = type { %struct.__pthread_mutex_s }
%struct.__pthread_mutex_s = type { i32, i32, i32, i32, i32, i16, i16, %struct.__pthread_internal_list }
%struct.__pthread_internal_list = type { ptr, ptr }
%struct.dt_lua_state_t = type { i32 }
%struct.dt_sys_resources_t = type { i64, i64, ptr, ptr, i32 }
%struct.dt_backthumb_t = type { double, double, i32, i32, i32, i32 }
%struct.dt_gimp_t = type { i32, ptr, ptr, i32, i32 }

@darktable = external global %struct.darktable_t, align 8
@.str = private unnamed_addr constant [41 x i8] c"[sql] %s:%d, function %s(): prepare \22%s\22\00", align 1
@.str.1 = private unnamed_addr constant [115 x i8] c"generated/home/dtcxzyw/WorkSpace/Projects/compilers/llvm-opt-benchmark/bench/darktable/darktable/src/common/tags.c\00", align 1
@stderr = external global ptr, align 8
@.str.3 = private unnamed_addr constant [53 x i8] c"sqlite3 error: %s:%d, function %s(), query \22%s\22: %s\0A\00", align 1
@.str.4 = private unnamed_addr constant [41 x i8] c"sqlite3 error: %s:%d, function %s(): %s\0A\00", align 1
@.str.21 = private unnamed_addr constant [38 x i8] c"[sql] %s:%d, function %s(): exec \22%s\22\00", align 1
@.str.44 = private unnamed_addr constant [4 x i8] c"%s|\00", align 1
@__FUNCTION__.dt_tag_count_tags_images = private unnamed_addr constant [25 x i8] c"dt_tag_count_tags_images\00", align 1
@.str.45 = private unnamed_addr constant [124 x i8] c"INSERT INTO memory.similar_tags (tagid)  SELECT id    FROM data.tags    WHERE name = ?1 OR SUBSTR(name, 1, LENGTH(?2)) = ?2\00", align 1
@.str.46 = private unnamed_addr constant [54 x i8] c"SELECT COUNT(DISTINCT tagid) FROM memory.similar_tags\00", align 1
@.str.47 = private unnamed_addr constant [122 x i8] c"SELECT COUNT(DISTINCT ti.imgid)  FROM main.tagged_images AS ti   JOIN memory.similar_tags AS st    ON st.tagid = ti.tagid\00", align 1
@.str.48 = private unnamed_addr constant [32 x i8] c"DELETE FROM memory.similar_tags\00", align 1

; Function Attrs: nounwind uwtable
define void @dt_tag_count_tags_images(ptr noundef %0, ptr noundef %1, ptr noundef %2) #0 {
  %4 = alloca ptr, align 8
  %5 = alloca ptr, align 8
  %6 = alloca ptr, align 8
  %7 = alloca ptr, align 8
  %8 = alloca i32, align 4
  %9 = alloca ptr, align 8
  %10 = alloca i32, align 4
  %11 = alloca i32, align 4
  %12 = alloca i32, align 4
  %13 = alloca i32, align 4
  %14 = alloca i32, align 4
  %15 = alloca i32, align 4
  store ptr %0, ptr %4, align 8, !tbaa !6
  store ptr %1, ptr %5, align 8, !tbaa !11
  store ptr %2, ptr %6, align 8, !tbaa !11
  call void @llvm.lifetime.start.p0(i64 8, ptr %7) #8
  %16 = load ptr, ptr %5, align 8, !tbaa !11
  store i32 0, ptr %16, align 4, !tbaa !52
  %17 = load ptr, ptr %6, align 8, !tbaa !11
  store i32 0, ptr %17, align 4, !tbaa !52
  %18 = load ptr, ptr %4, align 8, !tbaa !6
  %19 = icmp ne ptr %18, null
  br i1 %19, label %21, label %20

20:                                               ; preds = %3
  store i32 1, ptr %8, align 4
  br label %179

21:                                               ; preds = %3
  call void @llvm.lifetime.start.p0(i64 8, ptr %9) #8
  %22 = load ptr, ptr %4, align 8, !tbaa !6
  %23 = call noalias ptr (ptr, ...) @g_strdup_printf(ptr noundef @.str.44, ptr noundef %22)
  store ptr %23, ptr %9, align 8, !tbaa !6
  br label %24

24:                                               ; preds = %21
  br label %25

25:                                               ; preds = %24
  %26 = load i32, ptr getelementptr inbounds nuw (%struct.darktable_t, ptr @darktable, i32 0, i32 2), align 8, !tbaa !14
  %27 = and i32 256, %26
  %28 = icmp ne i32 %27, 0
  br i1 %28, label %29, label %35

29:                                               ; preds = %25
  %30 = load i32, ptr getelementptr inbounds nuw (%struct.darktable_t, ptr @darktable, i32 0, i32 2), align 8, !tbaa !14
  %31 = xor i32 %30, -1
  %32 = and i32 0, %31
  %33 = icmp ne i32 %32, 0
  br i1 %33, label %35, label %34

34:                                               ; preds = %29
  call void (ptr, ...) @dt_print_ext(ptr noundef @.str, ptr noundef @.str.1, i32 noundef 1331, ptr noundef @__FUNCTION__.dt_tag_count_tags_images, ptr noundef @.str.45)
  br label %35

35:                                               ; preds = %34, %29, %25
  br label %36

36:                                               ; preds = %35
  br label %37

37:                                               ; preds = %36
  call void @llvm.lifetime.start.p0(i64 4, ptr %10) #8
  %38 = load ptr, ptr getelementptr inbounds nuw (%struct.darktable_t, ptr @darktable, i32 0, i32 18), align 8, !tbaa !51
  %39 = call ptr @dt_database_get(ptr noundef %38)
  %40 = call i32 @sqlite3_prepare_v2(ptr noundef %39, ptr noundef @.str.45, i32 noundef -1, ptr noundef %7, ptr noundef null)
  store i32 %40, ptr %10, align 4, !tbaa !52
  %41 = load i32, ptr %10, align 4, !tbaa !52
  %42 = icmp ne i32 %41, 0
  br i1 %42, label %43, label %49

43:                                               ; preds = %37
  %44 = load ptr, ptr @stderr, align 8, !tbaa !53
  %45 = load ptr, ptr getelementptr inbounds nuw (%struct.darktable_t, ptr @darktable, i32 0, i32 18), align 8, !tbaa !51
  %46 = call ptr @dt_database_get(ptr noundef %45)
  %47 = call ptr @sqlite3_errmsg(ptr noundef %46)
  %48 = call i32 (ptr, ptr, ...) @fprintf(ptr noundef %44, ptr noundef @.str.3, ptr noundef @.str.1, i32 noundef 1331, ptr noundef @__FUNCTION__.dt_tag_count_tags_images, ptr noundef @.str.45, ptr noundef %47) #8
  br label %49

49:                                               ; preds = %43, %37
  call void @llvm.lifetime.end.p0(i64 4, ptr %10) #8
  br label %50

50:                                               ; preds = %49
  br label %51

51:                                               ; preds = %50
  call void @llvm.lifetime.start.p0(i64 4, ptr %11) #8
  %52 = load ptr, ptr %7, align 8, !tbaa !55
  %53 = load ptr, ptr %4, align 8, !tbaa !6
  %54 = call i32 @sqlite3_bind_text(ptr noundef %52, i32 noundef 1, ptr noundef %53, i32 noundef -1, ptr noundef inttoptr (i64 -1 to ptr))
  store i32 %54, ptr %11, align 4, !tbaa !52
  %55 = load i32, ptr %11, align 4, !tbaa !52
  %56 = icmp ne i32 %55, 0
  br i1 %56, label %57, label %63

57:                                               ; preds = %51
  %58 = load ptr, ptr @stderr, align 8, !tbaa !53
  %59 = load ptr, ptr getelementptr inbounds nuw (%struct.darktable_t, ptr @darktable, i32 0, i32 18), align 8, !tbaa !51
  %60 = call ptr @dt_database_get(ptr noundef %59)
  %61 = call ptr @sqlite3_errmsg(ptr noundef %60)
  %62 = call i32 (ptr, ptr, ...) @fprintf(ptr noundef %58, ptr noundef @.str.4, ptr noundef @.str.1, i32 noundef 1333, ptr noundef @__FUNCTION__.dt_tag_count_tags_images, ptr noundef %61) #8
  br label %63

63:                                               ; preds = %57, %51
  call void @llvm.lifetime.end.p0(i64 4, ptr %11) #8
  call void @llvm.lifetime.start.p0(i64 4, ptr %12) #8
  %64 = load ptr, ptr %7, align 8, !tbaa !55
  %65 = load ptr, ptr %9, align 8, !tbaa !6
  %66 = call i32 @sqlite3_bind_text(ptr noundef %64, i32 noundef 2, ptr noundef %65, i32 noundef -1, ptr noundef inttoptr (i64 -1 to ptr))
  store i32 %66, ptr %12, align 4, !tbaa !52
  %67 = load i32, ptr %12, align 4, !tbaa !52
  %68 = icmp ne i32 %67, 0
  br i1 %68, label %69, label %75

69:                                               ; preds = %63
  %70 = load ptr, ptr @stderr, align 8, !tbaa !53
  %71 = load ptr, ptr getelementptr inbounds nuw (%struct.darktable_t, ptr @darktable, i32 0, i32 18), align 8, !tbaa !51
  %72 = call ptr @dt_database_get(ptr noundef %71)
  %73 = call ptr @sqlite3_errmsg(ptr noundef %72)
  %74 = call i32 (ptr, ptr, ...) @fprintf(ptr noundef %70, ptr noundef @.str.4, ptr noundef @.str.1, i32 noundef 1334, ptr noundef @__FUNCTION__.dt_tag_count_tags_images, ptr noundef %73) #8
  br label %75

75:                                               ; preds = %69, %63
  call void @llvm.lifetime.end.p0(i64 4, ptr %12) #8
  %76 = load ptr, ptr %7, align 8, !tbaa !55
  %77 = call i32 @sqlite3_step(ptr noundef %76)
  %78 = load ptr, ptr %7, align 8, !tbaa !55
  %79 = call i32 @sqlite3_finalize(ptr noundef %78)
  %80 = load ptr, ptr %9, align 8, !tbaa !6
  call void @g_free(ptr noundef %80)
  br label %81

81:                                               ; preds = %75
  br label %82

82:                                               ; preds = %81
  %83 = load i32, ptr getelementptr inbounds nuw (%struct.darktable_t, ptr @darktable, i32 0, i32 2), align 8, !tbaa !14
  %84 = and i32 256, %83
  %85 = icmp ne i32 %84, 0
  br i1 %85, label %86, label %92

86:                                               ; preds = %82
  %87 = load i32, ptr getelementptr inbounds nuw (%struct.darktable_t, ptr @darktable, i32 0, i32 2), align 8, !tbaa !14
  %88 = xor i32 %87, -1
  %89 = and i32 0, %88
  %90 = icmp ne i32 %89, 0
  br i1 %90, label %92, label %91

91:                                               ; preds = %86
  call void (ptr, ...) @dt_print_ext(ptr noundef @.str, ptr noundef @.str.1, i32 noundef 1342, ptr noundef @__FUNCTION__.dt_tag_count_tags_images, ptr noundef @.str.46)
  br label %92

92:                                               ; preds = %91, %86, %82
  br label %93

93:                                               ; preds = %92
  br label %94

94:                                               ; preds = %93
  call void @llvm.lifetime.start.p0(i64 4, ptr %13) #8
  %95 = load ptr, ptr getelementptr inbounds nuw (%struct.darktable_t, ptr @darktable, i32 0, i32 18), align 8, !tbaa !51
  %96 = call ptr @dt_database_get(ptr noundef %95)
  %97 = call i32 @sqlite3_prepare_v2(ptr noundef %96, ptr noundef @.str.46, i32 noundef -1, ptr noundef %7, ptr noundef null)
  store i32 %97, ptr %13, align 4, !tbaa !52
  %98 = load i32, ptr %13, align 4, !tbaa !52
  %99 = icmp ne i32 %98, 0
  br i1 %99, label %100, label %106

100:                                              ; preds = %94
  %101 = load ptr, ptr @stderr, align 8, !tbaa !53
  %102 = load ptr, ptr getelementptr inbounds nuw (%struct.darktable_t, ptr @darktable, i32 0, i32 18), align 8, !tbaa !51
  %103 = call ptr @dt_database_get(ptr noundef %102)
  %104 = call ptr @sqlite3_errmsg(ptr noundef %103)
  %105 = call i32 (ptr, ptr, ...) @fprintf(ptr noundef %101, ptr noundef @.str.3, ptr noundef @.str.1, i32 noundef 1342, ptr noundef @__FUNCTION__.dt_tag_count_tags_images, ptr noundef @.str.46, ptr noundef %104) #8
  br label %106

106:                                              ; preds = %100, %94
  call void @llvm.lifetime.end.p0(i64 4, ptr %13) #8
  br label %107

107:                                              ; preds = %106
  br label %108

108:                                              ; preds = %107
  %109 = load ptr, ptr %7, align 8, !tbaa !55
  %110 = call i32 @sqlite3_step(ptr noundef %109)
  %111 = load ptr, ptr %7, align 8, !tbaa !55
  %112 = call i32 @sqlite3_column_int(ptr noundef %111, i32 noundef 0)
  %113 = load ptr, ptr %5, align 8, !tbaa !11
  store i32 %112, ptr %113, align 4, !tbaa !52
  %114 = load ptr, ptr %7, align 8, !tbaa !55
  %115 = call i32 @sqlite3_finalize(ptr noundef %114)
  br label %116

116:                                              ; preds = %108
  br label %117

117:                                              ; preds = %116
  %118 = load i32, ptr getelementptr inbounds nuw (%struct.darktable_t, ptr @darktable, i32 0, i32 2), align 8, !tbaa !14
  %119 = and i32 256, %118
  %120 = icmp ne i32 %119, 0
  br i1 %120, label %121, label %127

121:                                              ; preds = %117
  %122 = load i32, ptr getelementptr inbounds nuw (%struct.darktable_t, ptr @darktable, i32 0, i32 2), align 8, !tbaa !14
  %123 = xor i32 %122, -1
  %124 = and i32 0, %123
  %125 = icmp ne i32 %124, 0
  br i1 %125, label %127, label %126

126:                                              ; preds = %121
  call void (ptr, ...) @dt_print_ext(ptr noundef @.str, ptr noundef @.str.1, i32 noundef 1353, ptr noundef @__FUNCTION__.dt_tag_count_tags_images, ptr noundef @.str.47)
  br label %127

127:                                              ; preds = %126, %121, %117
  br label %128

128:                                              ; preds = %127
  br label %129

129:                                              ; preds = %128
  call void @llvm.lifetime.start.p0(i64 4, ptr %14) #8
  %130 = load ptr, ptr getelementptr inbounds nuw (%struct.darktable_t, ptr @darktable, i32 0, i32 18), align 8, !tbaa !51
  %131 = call ptr @dt_database_get(ptr noundef %130)
  %132 = call i32 @sqlite3_prepare_v2(ptr noundef %131, ptr noundef @.str.47, i32 noundef -1, ptr noundef %7, ptr noundef null)
  store i32 %132, ptr %14, align 4, !tbaa !52
  %133 = load i32, ptr %14, align 4, !tbaa !52
  %134 = icmp ne i32 %133, 0
  br i1 %134, label %135, label %141

135:                                              ; preds = %129
  %136 = load ptr, ptr @stderr, align 8, !tbaa !53
  %137 = load ptr, ptr getelementptr inbounds nuw (%struct.darktable_t, ptr @darktable, i32 0, i32 18), align 8, !tbaa !51
  %138 = call ptr @dt_database_get(ptr noundef %137)
  %139 = call ptr @sqlite3_errmsg(ptr noundef %138)
  %140 = call i32 (ptr, ptr, ...) @fprintf(ptr noundef %136, ptr noundef @.str.3, ptr noundef @.str.1, i32 noundef 1353, ptr noundef @__FUNCTION__.dt_tag_count_tags_images, ptr noundef @.str.47, ptr noundef %139) #8
  br label %141

141:                                              ; preds = %135, %129
  call void @llvm.lifetime.end.p0(i64 4, ptr %14) #8
  br label %142

142:                                              ; preds = %141
  br label %143

143:                                              ; preds = %142
  %144 = load ptr, ptr %7, align 8, !tbaa !55
  %145 = call i32 @sqlite3_step(ptr noundef %144)
  %146 = load ptr, ptr %7, align 8, !tbaa !55
  %147 = call i32 @sqlite3_column_int(ptr noundef %146, i32 noundef 0)
  %148 = load ptr, ptr %6, align 8, !tbaa !11
  store i32 %147, ptr %148, align 4, !tbaa !52
  %149 = load ptr, ptr %7, align 8, !tbaa !55
  %150 = call i32 @sqlite3_finalize(ptr noundef %149)
  br label %151

151:                                              ; preds = %143
  br label %152

152:                                              ; preds = %151
  %153 = load i32, ptr getelementptr inbounds nuw (%struct.darktable_t, ptr @darktable, i32 0, i32 2), align 8, !tbaa !14
  %154 = and i32 256, %153
  %155 = icmp ne i32 %154, 0
  br i1 %155, label %156, label %162

156:                                              ; preds = %152
  %157 = load i32, ptr getelementptr inbounds nuw (%struct.darktable_t, ptr @darktable, i32 0, i32 2), align 8, !tbaa !14
  %158 = xor i32 %157, -1
  %159 = and i32 0, %158
  %160 = icmp ne i32 %159, 0
  br i1 %160, label %162, label %161

161:                                              ; preds = %156
  call void (ptr, ...) @dt_print_ext(ptr noundef @.str.21, ptr noundef @.str.1, i32 noundef 1361, ptr noundef @__FUNCTION__.dt_tag_count_tags_images, ptr noundef @.str.48)
  br label %162

162:                                              ; preds = %161, %156, %152
  br label %163

163:                                              ; preds = %162
  br label %164

164:                                              ; preds = %163
  call void @llvm.lifetime.start.p0(i64 4, ptr %15) #8
  %165 = load ptr, ptr getelementptr inbounds nuw (%struct.darktable_t, ptr @darktable, i32 0, i32 18), align 8, !tbaa !51
  %166 = call ptr @dt_database_get(ptr noundef %165)
  %167 = call i32 @sqlite3_exec(ptr noundef %166, ptr noundef @.str.48, ptr noundef null, ptr noundef null, ptr noundef null)
  store i32 %167, ptr %15, align 4, !tbaa !52
  %168 = load i32, ptr %15, align 4, !tbaa !52
  %169 = icmp ne i32 %168, 0
  br i1 %169, label %170, label %176

170:                                              ; preds = %164
  %171 = load ptr, ptr @stderr, align 8, !tbaa !53
  %172 = load ptr, ptr getelementptr inbounds nuw (%struct.darktable_t, ptr @darktable, i32 0, i32 18), align 8, !tbaa !51
  %173 = call ptr @dt_database_get(ptr noundef %172)
  %174 = call ptr @sqlite3_errmsg(ptr noundef %173)
  %175 = call i32 (ptr, ptr, ...) @fprintf(ptr noundef %171, ptr noundef @.str.3, ptr noundef @.str.1, i32 noundef 1361, ptr noundef @__FUNCTION__.dt_tag_count_tags_images, ptr noundef @.str.48, ptr noundef %174) #8
  br label %176

176:                                              ; preds = %170, %164
  call void @llvm.lifetime.end.p0(i64 4, ptr %15) #8
  br label %177

177:                                              ; preds = %176
  br label %178

178:                                              ; preds = %177
  call void @llvm.lifetime.end.p0(i64 8, ptr %9) #8
  store i32 0, ptr %8, align 4
  br label %179

179:                                              ; preds = %178, %20
  call void @llvm.lifetime.end.p0(i64 8, ptr %7) #8
  %180 = load i32, ptr %8, align 4
  switch i32 %180, label %182 [
    i32 0, label %181
    i32 1, label %181
  ]

181:                                              ; preds = %179, %179
  ret void

182:                                              ; preds = %179
  unreachable
}