; Function Attrs: nounwind uwtable
define void @dt_tag_count_tags_images(ptr noundef %0, ptr noundef writeonly captures(none) initializes((0, 4)) %1, ptr noundef writeonly captures(none) initializes((0, 4)) %2) local_unnamed_addr #0 {
  %4 = alloca ptr, align 8
  call void @llvm.lifetime.start.p0(i64 8, ptr nonnull %4) #11
  store i32 0, ptr %1, align 4, !tbaa !54
  store i32 0, ptr %2, align 4, !tbaa !54
  %.not = icmp eq ptr %0, null
  br i1 %.not, label %96, label %5

5:                                                ; preds = %3
  %6 = tail call noalias ptr (ptr, ...) @g_strdup_printf(ptr noundef nonnull @.str.44, ptr noundef nonnull %0) #11
  %7 = load i32, ptr getelementptr inbounds nuw (i8, ptr @darktable, i64 8), align 8, !tbaa !9
  %8 = and i32 %7, 256
  %.not14 = icmp eq i32 %8, 0
  br i1 %.not14, label %10, label %9

9:                                                ; preds = %5
  tail call void (ptr, ...) @dt_print_ext(ptr noundef nonnull @.str, ptr noundef nonnull @.str.1, i32 noundef 1331, ptr noundef nonnull @__FUNCTION__.dt_tag_count_tags_images, ptr noundef nonnull @.str.45) #11
  br label %10

10:                                               ; preds = %9, %5
  %11 = load ptr, ptr getelementptr inbounds nuw (i8, ptr @darktable, i64 136), align 8, !tbaa !49
  %12 = tail call ptr @dt_database_get(ptr noundef %11) #11
  %13 = call i32 @sqlite3_prepare_v2(ptr noundef %12, ptr noundef nonnull @.str.45, i32 noundef -1, ptr noundef nonnull %4, ptr noundef null) #11
  %.not15 = icmp eq i32 %13, 0
  br i1 %.not15, label %20, label %14

14:                                               ; preds = %10
  %15 = load ptr, ptr @stderr, align 8, !tbaa !50
  %16 = load ptr, ptr getelementptr inbounds nuw (i8, ptr @darktable, i64 136), align 8, !tbaa !49
  %17 = call ptr @dt_database_get(ptr noundef %16) #11
  %18 = call ptr @sqlite3_errmsg(ptr noundef %17) #11
  %19 = call i32 (ptr, ptr, ...) @fprintf(ptr noundef %15, ptr noundef nonnull @.str.3, ptr noundef nonnull @.str.1, i32 noundef 1331, ptr noundef nonnull @__FUNCTION__.dt_tag_count_tags_images, ptr noundef nonnull @.str.45, ptr noundef %18) #12
  br label %20

20:                                               ; preds = %14, %10
  %21 = load ptr, ptr %4, align 8, !tbaa !52
  %22 = call i32 @sqlite3_bind_text(ptr noundef %21, i32 noundef 1, ptr noundef nonnull %0, i32 noundef -1, ptr noundef nonnull inttoptr (i64 -1 to ptr)) #11
  %.not16 = icmp eq i32 %22, 0
  br i1 %.not16, label %29, label %23

23:                                               ; preds = %20
  %24 = load ptr, ptr @stderr, align 8, !tbaa !50
  %25 = load ptr, ptr getelementptr inbounds nuw (i8, ptr @darktable, i64 136), align 8, !tbaa !49
  %26 = call ptr @dt_database_get(ptr noundef %25) #11
  %27 = call ptr @sqlite3_errmsg(ptr noundef %26) #11
  %28 = call i32 (ptr, ptr, ...) @fprintf(ptr noundef %24, ptr noundef nonnull @.str.4, ptr noundef nonnull @.str.1, i32 noundef 1333, ptr noundef nonnull @__FUNCTION__.dt_tag_count_tags_images, ptr noundef %27) #12
  br label %29

29:                                               ; preds = %23, %20
  %30 = load ptr, ptr %4, align 8, !tbaa !52
  %31 = call i32 @sqlite3_bind_text(ptr noundef %30, i32 noundef 2, ptr noundef %6, i32 noundef -1, ptr noundef nonnull inttoptr (i64 -1 to ptr)) #11
  %.not17 = icmp eq i32 %31, 0
  br i1 %.not17, label %38, label %32

32:                                               ; preds = %29
  %33 = load ptr, ptr @stderr, align 8, !tbaa !50
  %34 = load ptr, ptr getelementptr inbounds nuw (i8, ptr @darktable, i64 136), align 8, !tbaa !49
  %35 = call ptr @dt_database_get(ptr noundef %34) #11
  %36 = call ptr @sqlite3_errmsg(ptr noundef %35) #11
  %37 = call i32 (ptr, ptr, ...) @fprintf(ptr noundef %33, ptr noundef nonnull @.str.4, ptr noundef nonnull @.str.1, i32 noundef 1334, ptr noundef nonnull @__FUNCTION__.dt_tag_count_tags_images, ptr noundef %36) #12
  br label %38

38:                                               ; preds = %32, %29
  %39 = load ptr, ptr %4, align 8, !tbaa !52
  %40 = call i32 @sqlite3_step(ptr noundef %39) #11
  %41 = load ptr, ptr %4, align 8, !tbaa !52
  %42 = call i32 @sqlite3_finalize(ptr noundef %41) #11
  call void @g_free(ptr noundef %6) #11
  %43 = load i32, ptr getelementptr inbounds nuw (i8, ptr @darktable, i64 8), align 8, !tbaa !9
  %44 = and i32 %43, 256
  %.not18 = icmp eq i32 %44, 0
  br i1 %.not18, label %46, label %45

45:                                               ; preds = %38
  call void (ptr, ...) @dt_print_ext(ptr noundef nonnull @.str, ptr noundef nonnull @.str.1, i32 noundef 1342, ptr noundef nonnull @__FUNCTION__.dt_tag_count_tags_images, ptr noundef nonnull @.str.46) #11
  br label %46

46:                                               ; preds = %45, %38
  %47 = load ptr, ptr getelementptr inbounds nuw (i8, ptr @darktable, i64 136), align 8, !tbaa !49
  %48 = call ptr @dt_database_get(ptr noundef %47) #11
  %49 = call i32 @sqlite3_prepare_v2(ptr noundef %48, ptr noundef nonnull @.str.46, i32 noundef -1, ptr noundef nonnull %4, ptr noundef null) #11
  %.not19 = icmp eq i32 %49, 0
  br i1 %.not19, label %56, label %50

50:                                               ; preds = %46
  %51 = load ptr, ptr @stderr, align 8, !tbaa !50
  %52 = load ptr, ptr getelementptr inbounds nuw (i8, ptr @darktable, i64 136), align 8, !tbaa !49
  %53 = call ptr @dt_database_get(ptr noundef %52) #11
  %54 = call ptr @sqlite3_errmsg(ptr noundef %53) #11
  %55 = call i32 (ptr, ptr, ...) @fprintf(ptr noundef %51, ptr noundef nonnull @.str.3, ptr noundef nonnull @.str.1, i32 noundef 1342, ptr noundef nonnull @__FUNCTION__.dt_tag_count_tags_images, ptr noundef nonnull @.str.46, ptr noundef %54) #12
  br label %56

56:                                               ; preds = %50, %46
  %57 = load ptr, ptr %4, align 8, !tbaa !52
  %58 = call i32 @sqlite3_step(ptr noundef %57) #11
  %59 = load ptr, ptr %4, align 8, !tbaa !52
  %60 = call i32 @sqlite3_column_int(ptr noundef %59, i32 noundef 0) #11
  store i32 %60, ptr %1, align 4, !tbaa !54
  %61 = load ptr, ptr %4, align 8, !tbaa !52
  %62 = call i32 @sqlite3_finalize(ptr noundef %61) #11
  %63 = load i32, ptr getelementptr inbounds nuw (i8, ptr @darktable, i64 8), align 8, !tbaa !9
  %64 = and i32 %63, 256
  %.not20 = icmp eq i32 %64, 0
  br i1 %.not20, label %66, label %65

65:                                               ; preds = %56
  call void (ptr, ...) @dt_print_ext(ptr noundef nonnull @.str, ptr noundef nonnull @.str.1, i32 noundef 1353, ptr noundef nonnull @__FUNCTION__.dt_tag_count_tags_images, ptr noundef nonnull @.str.47) #11
  br label %66

66:                                               ; preds = %65, %56
  %67 = load ptr, ptr getelementptr inbounds nuw (i8, ptr @darktable, i64 136), align 8, !tbaa !49
  %68 = call ptr @dt_database_get(ptr noundef %67) #11
  %69 = call i32 @sqlite3_prepare_v2(ptr noundef %68, ptr noundef nonnull @.str.47, i32 noundef -1, ptr noundef nonnull %4, ptr noundef null) #11
  %.not21 = icmp eq i32 %69, 0
  br i1 %.not21, label %76, label %70

70:                                               ; preds = %66
  %71 = load ptr, ptr @stderr, align 8, !tbaa !50
  %72 = load ptr, ptr getelementptr inbounds nuw (i8, ptr @darktable, i64 136), align 8, !tbaa !49
  %73 = call ptr @dt_database_get(ptr noundef %72) #11
  %74 = call ptr @sqlite3_errmsg(ptr noundef %73) #11
  %75 = call i32 (ptr, ptr, ...) @fprintf(ptr noundef %71, ptr noundef nonnull @.str.3, ptr noundef nonnull @.str.1, i32 noundef 1353, ptr noundef nonnull @__FUNCTION__.dt_tag_count_tags_images, ptr noundef nonnull @.str.47, ptr noundef %74) #12
  br label %76

76:                                               ; preds = %70, %66
  %77 = load ptr, ptr %4, align 8, !tbaa !52
  %78 = call i32 @sqlite3_step(ptr noundef %77) #11
  %79 = load ptr, ptr %4, align 8, !tbaa !52
  %80 = call i32 @sqlite3_column_int(ptr noundef %79, i32 noundef 0) #11
  store i32 %80, ptr %2, align 4, !tbaa !54
  %81 = load ptr, ptr %4, align 8, !tbaa !52
  %82 = call i32 @sqlite3_finalize(ptr noundef %81) #11
  %83 = load i32, ptr getelementptr inbounds nuw (i8, ptr @darktable, i64 8), align 8, !tbaa !9
  %84 = and i32 %83, 256
  %.not22 = icmp eq i32 %84, 0
  br i1 %.not22, label %86, label %85

85:                                               ; preds = %76
  call void (ptr, ...) @dt_print_ext(ptr noundef nonnull @.str.21, ptr noundef nonnull @.str.1, i32 noundef 1361, ptr noundef nonnull @__FUNCTION__.dt_tag_count_tags_images, ptr noundef nonnull @.str.48) #11
  br label %86

86:                                               ; preds = %85, %76
  %87 = load ptr, ptr getelementptr inbounds nuw (i8, ptr @darktable, i64 136), align 8, !tbaa !49
  %88 = call ptr @dt_database_get(ptr noundef %87) #11
  %89 = call i32 @sqlite3_exec(ptr noundef %88, ptr noundef nonnull @.str.48, ptr noundef null, ptr noundef null, ptr noundef null) #11
  %.not23 = icmp eq i32 %89, 0
  br i1 %.not23, label %96, label %90

90:                                               ; preds = %86
  %91 = load ptr, ptr @stderr, align 8, !tbaa !50
  %92 = load ptr, ptr getelementptr inbounds nuw (i8, ptr @darktable, i64 136), align 8, !tbaa !49
  %93 = call ptr @dt_database_get(ptr noundef %92) #11
  %94 = call ptr @sqlite3_errmsg(ptr noundef %93) #11
  %95 = call i32 (ptr, ptr, ...) @fprintf(ptr noundef %91, ptr noundef nonnull @.str.3, ptr noundef nonnull @.str.1, i32 noundef 1361, ptr noundef nonnull @__FUNCTION__.dt_tag_count_tags_images, ptr noundef nonnull @.str.48, ptr noundef %94) #12
  br label %96

96:                                               ; preds = %86, %90, %3
  call void @llvm.lifetime.end.p0(i64 8, ptr nonnull %4) #11
  ret void
}